; Function Attrs: mustprogress nofree norecurse nosync nounwind willreturn memory(argmem: write) uwtable
define hidden void @_ZN4cvc58internal14RtfTermContext8getFlagsEjRbS2_(i32 noundef %0, ptr noundef nonnull writeonly align 1 captures(none) dereferenceable(1) initializes((0, 1)) %1, ptr noundef nonnull writeonly align 1 captures(none) dereferenceable(1) initializes((0, 1)) %2) local_unnamed_addr #5 align 2 {
  %4 = trunc i32 %0 to i8
  %5 = and i8 %4, 1
  store i8 %5, ptr %1, align 1, !tbaa !9
  %6 = icmp ugt i32 %0, 1
  %7 = zext i1 %6 to i8
  store i8 %7, ptr %2, align 1, !tbaa !9
  ret void
}